; Function Attrs: mustprogress nounwind uwtable
define hidden void @_ZN15G1CollectedHeap17complete_cleaningEb(ptr nocapture noundef nonnull readonly align 8 dereferenceable(1488) %0, i1 noundef zeroext %1) local_unnamed_addr #0 align 2 {
  %3 = alloca %class.G1ParallelCleaningTask, align 8
  %4 = getelementptr inbounds i8, ptr %0, i64 128
  %5 = load ptr, ptr %4, align 8
  %6 = getelementptr inbounds i8, ptr %5, i64 32
  %7 = load i32, ptr %6, align 8
  call void @_ZN22G1ParallelCleaningTaskC1Ejb(ptr noundef nonnull align 8 dereferenceable(72) %3, i32 noundef %7, i1 noundef zeroext %1) #23
  %8 = load ptr, ptr %4, align 8
  call void @_ZN13WorkerThreads8run_taskEP10WorkerTask(ptr noundef nonnull align 8 dereferenceable(120) %8, ptr noundef nonnull %3) #23
  store ptr getelementptr inbounds inrange(-16, 8) (i8, ptr @_ZTV22G1ParallelCleaningTask, i64 16), ptr %3, align 8
  %9 = getelementptr inbounds i8, ptr %3, i64 24
  call void @_ZN22CodeCacheUnloadingTaskD1Ev(ptr noundef nonnull align 8 dereferenceable(24) %9) #23
  ret void
}